; Function Attrs: cold nounwind optsize uwtable
define internal range(i32 -22, 1) i32 @roq_dpcm_encode_init(ptr noundef %0) #0 {
  %2 = getelementptr inbounds nuw i8, ptr %0, i64 32
  %3 = load ptr, ptr %2, align 8, !tbaa !4
  %4 = getelementptr inbounds nuw i8, ptr %0, i64 356
  %5 = load i32, ptr %4, align 4, !tbaa !27
  %6 = icmp sgt i32 %5, 2
  br i1 %6, label %7, label %8

7:                                                ; preds = %1
  tail call void (ptr, i32, ptr, ...) @av_log(ptr noundef nonnull %0, i32 noundef 16, ptr noundef nonnull @.str.2) #5
  br label %25

8:                                                ; preds = %1
  %9 = getelementptr inbounds nuw i8, ptr %0, i64 344
  %10 = load i32, ptr %9, align 8, !tbaa !28
  %.not = icmp eq i32 %10, 22050
  br i1 %.not, label %12, label %11

11:                                               ; preds = %8
  tail call void (ptr, i32, ptr, ...) @av_log(ptr noundef nonnull %0, i32 noundef 16, ptr noundef nonnull @.str.3) #5
  br label %25

12:                                               ; preds = %8
  %13 = getelementptr inbounds nuw i8, ptr %0, i64 376
  store i32 735, ptr %13, align 8, !tbaa !29
  %14 = mul i32 %5, 176400
  %15 = add i32 %14, 1920
  %16 = sext i32 %15 to i64
  %17 = getelementptr inbounds nuw i8, ptr %0, i64 56
  store i64 %16, ptr %17, align 8, !tbaa !30
  %18 = mul nsw i32 %5, 5880
  %19 = sext i32 %18 to i64
  %20 = shl nsw i64 %19, 1
  %21 = tail call noalias ptr @av_malloc(i64 noundef %20) #5
  %22 = getelementptr inbounds nuw i8, ptr %3, i64 16
  store ptr %21, ptr %22, align 8, !tbaa !31
  %.not15 = icmp eq ptr %21, null
  br i1 %.not15, label %25, label %23

23:                                               ; preds = %12
  %24 = getelementptr inbounds nuw i8, ptr %3, i64 2
  store i16 0, ptr %24, align 2, !tbaa !33
  store i16 0, ptr %3, align 8, !tbaa !33
  br label %25

25:                                               ; preds = %12, %23, %11, %7
  %.0 = phi i32 [ -22, %7 ], [ -22, %11 ], [ 0, %23 ], [ -12, %12 ]
  ret i32 %.0
}